target datalayout = "e-m:e-p270:32:32-p271:32:32-p272:64:64-i64:64-i128:128-f80:128-n8:16:32:64-S128"
target triple = "x86_64-pc-linux-gnu"

%struct.AVFilterContext = type { ptr, ptr, ptr, ptr, ptr, i32, ptr, ptr, i32, ptr, ptr, i32, i32, ptr, ptr, ptr, ptr, i32, ptr, i32, i32 }
%struct.ThumbContext = type { ptr, i32, i32, i32, ptr, %struct.AVRational, i32, ptr, [4 x i32], [4 x i32] }
%struct.AVRational = type { i32, i32 }
%struct.AVFilterLink = type { ptr, ptr, ptr, ptr, i32, i32, i32, i32, %struct.AVRational, i32, i32, i32, %struct.AVChannelLayout, %struct.AVRational, ptr, i32, %struct.AVFilterFormatsConfig, %struct.AVFilterFormatsConfig }
%struct.AVChannelLayout = type { i32, i32, %union.anon.1, ptr }
%union.anon.1 = type { i64 }
%struct.AVFilterFormatsConfig = type { ptr, ptr, ptr, ptr, ptr }
%struct.AVPixFmtDescriptor = type { ptr, i8, i8, i8, i64, [4 x %struct.AVComponentDescriptor], ptr }
%struct.AVComponentDescriptor = type { i32, i32, i32, i32, i32 }

; Function Attrs: nounwind uwtable
define internal i32 @config_props(ptr noundef %0) #1 {
  %2 = alloca i32, align 4
  %3 = alloca ptr, align 8
  %4 = alloca ptr, align 8
  %5 = alloca ptr, align 8
  %6 = alloca ptr, align 8
  %7 = alloca i32, align 4
  store ptr %0, ptr %3, align 8, !tbaa !36
  call void @llvm.lifetime.start.p0(i64 8, ptr %4) #10
  %8 = load ptr, ptr %3, align 8, !tbaa !36
  %9 = getelementptr inbounds nuw %struct.AVFilterLink, ptr %8, i32 0, i32 2
  %10 = load ptr, ptr %9, align 8, !tbaa !39
  store ptr %10, ptr %4, align 8, !tbaa !4
  call void @llvm.lifetime.start.p0(i64 8, ptr %5) #10
  %11 = load ptr, ptr %4, align 8, !tbaa !4
  %12 = getelementptr inbounds nuw %struct.AVFilterContext, ptr %11, i32 0, i32 9
  %13 = load ptr, ptr %12, align 8, !tbaa !9
  store ptr %13, ptr %5, align 8, !tbaa !22
  call void @llvm.lifetime.start.p0(i64 8, ptr %6) #10
  %14 = load ptr, ptr %3, align 8, !tbaa !36
  %15 = getelementptr inbounds nuw %struct.AVFilterLink, ptr %14, i32 0, i32 5
  %16 = load i32, ptr %15, align 4, !tbaa !59
  %17 = call ptr @av_pix_fmt_desc_get(i32 noundef %16)
  store ptr %17, ptr %6, align 8, !tbaa !60
  %18 = load ptr, ptr %4, align 8, !tbaa !4
  %19 = call i32 @ff_filter_get_nb_threads(ptr noundef %18) #11
  %20 = load ptr, ptr %5, align 8, !tbaa !22
  %21 = getelementptr inbounds nuw %struct.ThumbContext, ptr %20, i32 0, i32 6
  store i32 %19, ptr %21, align 8, !tbaa !55
  %22 = load ptr, ptr %5, align 8, !tbaa !22
  %23 = getelementptr inbounds nuw %struct.ThumbContext, ptr %22, i32 0, i32 6
  %24 = load i32, ptr %23, align 8, !tbaa !55
  %25 = sext i32 %24 to i64
  %26 = mul i64 %25, 4
  %27 = call noalias ptr @av_calloc(i64 noundef 768, i64 noundef %26)
  %28 = load ptr, ptr %5, align 8, !tbaa !22
  %29 = getelementptr inbounds nuw %struct.ThumbContext, ptr %28, i32 0, i32 7
  store ptr %27, ptr %29, align 8, !tbaa !56
  %30 = load ptr, ptr %5, align 8, !tbaa !22
  %31 = getelementptr inbounds nuw %struct.ThumbContext, ptr %30, i32 0, i32 7
  %32 = load ptr, ptr %31, align 8, !tbaa !56
  %33 = icmp ne ptr %32, null
  br i1 %33, label %35, label %34

34:                                               ; preds = %1
  store i32 -12, ptr %2, align 4
  store i32 1, ptr %7, align 4
  br label %136

35:                                               ; preds = %1
  %36 = load ptr, ptr %5, align 8, !tbaa !22
  %37 = getelementptr inbounds nuw %struct.ThumbContext, ptr %36, i32 0, i32 5
  %38 = load ptr, ptr %3, align 8, !tbaa !36
  %39 = getelementptr inbounds nuw %struct.AVFilterLink, ptr %38, i32 0, i32 13
  call void @llvm.memcpy.p0.p0.i64(ptr align 8 %37, ptr align 8 %39, i64 8, i1 false), !tbaa.struct !62
  %40 = load ptr, ptr %6, align 8, !tbaa !60
  %41 = getelementptr inbounds nuw %struct.AVPixFmtDescriptor, ptr %40, i32 0, i32 2
  %42 = load i8, ptr %41, align 1, !tbaa !63
  %43 = call i1 @llvm.is.constant.i8(i8 %42)
  br i1 %43, label %55, label %44

44:                                               ; preds = %35
  %45 = load ptr, ptr %3, align 8, !tbaa !36
  %46 = getelementptr inbounds nuw %struct.AVFilterLink, ptr %45, i32 0, i32 6
  %47 = load i32, ptr %46, align 8, !tbaa !65
  %48 = sub nsw i32 0, %47
  %49 = load ptr, ptr %6, align 8, !tbaa !60
  %50 = getelementptr inbounds nuw %struct.AVPixFmtDescriptor, ptr %49, i32 0, i32 2
  %51 = load i8, ptr %50, align 1, !tbaa !63
  %52 = zext i8 %51 to i32
  %53 = ashr i32 %48, %52
  %54 = sub nsw i32 0, %53
  br label %71

55:                                               ; preds = %35
  %56 = load ptr, ptr %3, align 8, !tbaa !36
  %57 = getelementptr inbounds nuw %struct.AVFilterLink, ptr %56, i32 0, i32 6
  %58 = load i32, ptr %57, align 8, !tbaa !65
  %59 = load ptr, ptr %6, align 8, !tbaa !60
  %60 = getelementptr inbounds nuw %struct.AVPixFmtDescriptor, ptr %59, i32 0, i32 2
  %61 = load i8, ptr %60, align 1, !tbaa !63
  %62 = zext i8 %61 to i32
  %63 = shl i32 1, %62
  %64 = add nsw i32 %58, %63
  %65 = sub nsw i32 %64, 1
  %66 = load ptr, ptr %6, align 8, !tbaa !60
  %67 = getelementptr inbounds nuw %struct.AVPixFmtDescriptor, ptr %66, i32 0, i32 2
  %68 = load i8, ptr %67, align 1, !tbaa !63
  %69 = zext i8 %68 to i32
  %70 = ashr i32 %65, %69
  br label %71

71:                                               ; preds = %55, %44
  %72 = phi i32 [ %54, %44 ], [ %70, %55 ]
  %73 = load ptr, ptr %5, align 8, !tbaa !22
  %74 = getelementptr inbounds nuw %struct.ThumbContext, ptr %73, i32 0, i32 8
  %75 = getelementptr inbounds [4 x i32], ptr %74, i64 0, i64 2
  store i32 %72, ptr %75, align 8, !tbaa !30
  %76 = load ptr, ptr %5, align 8, !tbaa !22
  %77 = getelementptr inbounds nuw %struct.ThumbContext, ptr %76, i32 0, i32 8
  %78 = getelementptr inbounds [4 x i32], ptr %77, i64 0, i64 1
  store i32 %72, ptr %78, align 4, !tbaa !30
  %79 = load ptr, ptr %3, align 8, !tbaa !36
  %80 = getelementptr inbounds nuw %struct.AVFilterLink, ptr %79, i32 0, i32 6
  %81 = load i32, ptr %80, align 8, !tbaa !65
  %82 = load ptr, ptr %5, align 8, !tbaa !22
  %83 = getelementptr inbounds nuw %struct.ThumbContext, ptr %82, i32 0, i32 8
  %84 = getelementptr inbounds [4 x i32], ptr %83, i64 0, i64 3
  store i32 %81, ptr %84, align 4, !tbaa !30
  %85 = load ptr, ptr %5, align 8, !tbaa !22
  %86 = getelementptr inbounds nuw %struct.ThumbContext, ptr %85, i32 0, i32 8
  %87 = getelementptr inbounds [4 x i32], ptr %86, i64 0, i64 0
  store i32 %81, ptr %87, align 8, !tbaa !30
  %88 = load ptr, ptr %6, align 8, !tbaa !60
  %89 = getelementptr inbounds nuw %struct.AVPixFmtDescriptor, ptr %88, i32 0, i32 3
  %90 = load i8, ptr %89, align 2, !tbaa !66
  %91 = call i1 @llvm.is.constant.i8(i8 %90)
  br i1 %91, label %103, label %92

92:                                               ; preds = %71
  %93 = load ptr, ptr %3, align 8, !tbaa !36
  %94 = getelementptr inbounds nuw %struct.AVFilterLink, ptr %93, i32 0, i32 7
  %95 = load i32, ptr %94, align 4, !tbaa !67
  %96 = sub nsw i32 0, %95
  %97 = load ptr, ptr %6, align 8, !tbaa !60
  %98 = getelementptr inbounds nuw %struct.AVPixFmtDescriptor, ptr %97, i32 0, i32 3
  %99 = load i8, ptr %98, align 2, !tbaa !66
  %100 = zext i8 %99 to i32
  %101 = ashr i32 %96, %100
  %102 = sub nsw i32 0, %101
  br label %119

103:                                              ; preds = %71
  %104 = load ptr, ptr %3, align 8, !tbaa !36
  %105 = getelementptr inbounds nuw %struct.AVFilterLink, ptr %104, i32 0, i32 7
  %106 = load i32, ptr %105, align 4, !tbaa !67
  %107 = load ptr, ptr %6, align 8, !tbaa !60
  %108 = getelementptr inbounds nuw %struct.AVPixFmtDescriptor, ptr %107, i32 0, i32 3
  %109 = load i8, ptr %108, align 2, !tbaa !66
  %110 = zext i8 %109 to i32
  %111 = shl i32 1, %110
  %112 = add nsw i32 %106, %111
  %113 = sub nsw i32 %112, 1
  %114 = load ptr, ptr %6, align 8, !tbaa !60
  %115 = getelementptr inbounds nuw %struct.AVPixFmtDescriptor, ptr %114, i32 0, i32 3
  %116 = load i8, ptr %115, align 2, !tbaa !66
  %117 = zext i8 %116 to i32
  %118 = ashr i32 %113, %117
  br label %119

119:                                              ; preds = %103, %92
  %120 = phi i32 [ %102, %92 ], [ %118, %103 ]
  %121 = load ptr, ptr %5, align 8, !tbaa !22
  %122 = getelementptr inbounds nuw %struct.ThumbContext, ptr %121, i32 0, i32 9
  %123 = getelementptr inbounds [4 x i32], ptr %122, i64 0, i64 2
  store i32 %120, ptr %123, align 8, !tbaa !30
  %124 = load ptr, ptr %5, align 8, !tbaa !22
  %125 = getelementptr inbounds nuw %struct.ThumbContext, ptr %124, i32 0, i32 9
  %126 = getelementptr inbounds [4 x i32], ptr %125, i64 0, i64 1
  store i32 %120, ptr %126, align 4, !tbaa !30
  %127 = load ptr, ptr %3, align 8, !tbaa !36
  %128 = getelementptr inbounds nuw %struct.AVFilterLink, ptr %127, i32 0, i32 7
  %129 = load i32, ptr %128, align 4, !tbaa !67
  %130 = load ptr, ptr %5, align 8, !tbaa !22
  %131 = getelementptr inbounds nuw %struct.ThumbContext, ptr %130, i32 0, i32 9
  %132 = getelementptr inbounds [4 x i32], ptr %131, i64 0, i64 3
  store i32 %129, ptr %132, align 4, !tbaa !30
  %133 = load ptr, ptr %5, align 8, !tbaa !22
  %134 = getelementptr inbounds nuw %struct.ThumbContext, ptr %133, i32 0, i32 9
  %135 = getelementptr inbounds [4 x i32], ptr %134, i64 0, i64 0
  store i32 %129, ptr %135, align 8, !tbaa !30
  store i32 0, ptr %2, align 4
  store i32 1, ptr %7, align 4
  br label %136

136:                                              ; preds = %119, %34
  call void @llvm.lifetime.end.p0(i64 8, ptr %6) #10
  call void @llvm.lifetime.end.p0(i64 8, ptr %5) #10
  call void @llvm.lifetime.end.p0(i64 8, ptr %4) #10
  %137 = load i32, ptr %2, align 4
  ret i32 %137
}