; Function Attrs: nounwind uwtable
define internal range(i32 -12, 1) i32 @config_props(ptr noundef readonly captures(none) %0) #1 {
  %2 = getelementptr inbounds nuw i8, ptr %0, i64 16
  %3 = load ptr, ptr %2, align 8, !tbaa !31
  %4 = getelementptr inbounds nuw i8, ptr %3, i64 72
  %5 = load ptr, ptr %4, align 8, !tbaa !4
  %6 = getelementptr inbounds nuw i8, ptr %0, i64 36
  %7 = load i32, ptr %6, align 4, !tbaa !54
  %8 = tail call ptr @av_pix_fmt_desc_get(i32 noundef %7) #9
  %9 = tail call i32 @ff_filter_get_nb_threads(ptr noundef %3) #10
  %10 = getelementptr inbounds nuw i8, ptr %5, i64 40
  store i32 %9, ptr %10, align 8, !tbaa !49
  %11 = sext i32 %9 to i64
  %12 = shl nsw i64 %11, 2
  %13 = tail call noalias ptr @av_calloc(i64 noundef 768, i64 noundef %12) #9
  %14 = getelementptr inbounds nuw i8, ptr %5, i64 48
  store ptr %13, ptr %14, align 8, !tbaa !50
  %.not = icmp eq ptr %13, null
  br i1 %.not, label %47, label %15

15:                                               ; preds = %1
  %16 = getelementptr inbounds nuw i8, ptr %5, i64 32
  %17 = getelementptr inbounds nuw i8, ptr %0, i64 96
  %18 = load i64, ptr %17, align 8
  store i64 %18, ptr %16, align 8
  %19 = getelementptr inbounds nuw i8, ptr %0, i64 40
  %20 = load i32, ptr %19, align 8, !tbaa !55
  %21 = sub nsw i32 0, %20
  %22 = getelementptr inbounds nuw i8, ptr %8, i64 9
  %23 = load i8, ptr %22, align 1, !tbaa !56
  %24 = zext nneg i8 %23 to i32
  %25 = ashr i32 %21, %24
  %26 = sub nsw i32 0, %25
  %27 = getelementptr inbounds nuw i8, ptr %5, i64 56
  %28 = getelementptr inbounds nuw i8, ptr %5, i64 64
  store i32 %26, ptr %28, align 8, !tbaa !52
  %29 = getelementptr inbounds nuw i8, ptr %5, i64 60
  store i32 %26, ptr %29, align 4, !tbaa !52
  %30 = getelementptr inbounds nuw i8, ptr %0, i64 40
  %31 = load i32, ptr %30, align 8, !tbaa !55
  %32 = getelementptr inbounds nuw i8, ptr %5, i64 68
  store i32 %31, ptr %32, align 4, !tbaa !52
  store i32 %31, ptr %27, align 8, !tbaa !52
  %33 = getelementptr inbounds nuw i8, ptr %0, i64 44
  %34 = load i32, ptr %33, align 4, !tbaa !58
  %35 = sub nsw i32 0, %34
  %36 = getelementptr inbounds nuw i8, ptr %8, i64 10
  %37 = load i8, ptr %36, align 2, !tbaa !59
  %38 = zext nneg i8 %37 to i32
  %39 = ashr i32 %35, %38
  %40 = sub nsw i32 0, %39
  %41 = getelementptr inbounds nuw i8, ptr %5, i64 72
  %42 = getelementptr inbounds nuw i8, ptr %5, i64 80
  store i32 %40, ptr %42, align 8, !tbaa !52
  %43 = getelementptr inbounds nuw i8, ptr %5, i64 76
  store i32 %40, ptr %43, align 4, !tbaa !52
  %44 = getelementptr inbounds nuw i8, ptr %0, i64 44
  %45 = load i32, ptr %44, align 4, !tbaa !58
  %46 = getelementptr inbounds nuw i8, ptr %5, i64 84
  store i32 %45, ptr %46, align 4, !tbaa !52
  store i32 %45, ptr %41, align 8, !tbaa !52
  br label %47

47:                                               ; preds = %1, %15
  %.0 = phi i32 [ 0, %15 ], [ -12, %1 ]
  ret i32 %.0
}